	.file	"callFunc.cpp"
	.text
	.globl	_Z5timerv
	.type	_Z5timerv, @function
_Z5timerv:
.LFB0:
	.cfi_startproc
	pushq	%rbp
	.cfi_def_cfa_offset 16
	.cfi_offset 6, -16
	movq	%rsp, %rbp
	.cfi_def_cfa_register 6
	movl	$5, -4(%rbp)
	movb	$6, -5(%rbp)
	movss	.LC0(%rip), %xmm0
	movss	%xmm0, -12(%rbp)
	movss	-12(%rbp), %xmm0
	cvttss2sil	%xmm0, %eax
	popq	%rbp
	.cfi_def_cfa 7, 8
	ret
	.cfi_endproc
.LFE0:
	.size	_Z5timerv, .-_Z5timerv
	.globl	_Z9guessWhatv
	.type	_Z9guessWhatv, @function
_Z9guessWhatv:
.LFB1:
	.cfi_startproc
	pushq	%rbp
	.cfi_def_cfa_offset 16
	.cfi_offset 6, -16
	movq	%rsp, %rbp
	.cfi_def_cfa_register 6
	nop
	popq	%rbp
	.cfi_def_cfa 7, 8
	ret
	.cfi_endproc
.LFE1:
	.size	_Z9guessWhatv, .-_Z9guessWhatv
	.globl	main
	.type	main, @function
main:
.LFB2:
	.cfi_startproc
	pushq	%rbp
	.cfi_def_cfa_offset 16
	.cfi_offset 6, -16
	movq	%rsp, %rbp
	.cfi_def_cfa_register 6
	call	_Z5timerv
	movl	$37, %eax
	popq	%rbp
	.cfi_def_cfa 7, 8
	ret
	.cfi_endproc
.LFE2:
	.size	main, .-main
	.section	.rodata
	.align 4
.LC0:
	.long	1088421888
	.ident	"GCC: (GNU) 9.2.1 20190827 (Red Hat 9.2.1-1)"
	.section	.note.GNU-stack,"",@progbits
